; Function Attrs: mustprogress uwtable
define hidden void @hb_set_destroy(ptr noundef %0) local_unnamed_addr #3 {
  %.not.i.i = icmp eq ptr %0, null
  br i1 %.not.i.i, label %_ZL17hb_object_destroyI8hb_set_tEbPT_.exit.thread, label %2

2:                                                ; preds = %1
  %3 = load atomic i32, ptr %0 monotonic, align 4
  %4 = load atomic i32, ptr %0 monotonic, align 4
  %.not.i9.i = icmp eq i32 %4, 0
  br i1 %.not.i9.i, label %_ZL17hb_object_destroyI8hb_set_tEbPT_.exit.thread, label %5

5:                                                ; preds = %2
  %6 = atomicrmw add ptr %0, i32 -1 acq_rel, align 4
  %.not8.i = icmp eq i32 %6, 1
  br i1 %.not8.i, label %7, label %_ZL17hb_object_destroyI8hb_set_tEbPT_.exit.thread

7:                                                ; preds = %5
  store atomic i32 -57005, ptr %0 monotonic, align 4
  %8 = getelementptr inbounds i8, ptr %0, i64 8
  %9 = load atomic i64, ptr %8 acquire, align 8
  %.not.i10.i = icmp eq i64 %9, 0
  br i1 %.not.i10.i, label %14, label %10

10:                                               ; preds = %7
  %11 = inttoptr i64 %9 to ptr
  %12 = getelementptr inbounds i8, ptr %11, i64 40
  tail call void @_ZN17hb_lockable_set_tIN20hb_user_data_array_t19hb_user_data_item_tE10hb_mutex_tE4finiERS2_(ptr noundef nonnull align 8 dereferenceable(16) %12, ptr noundef nonnull align 8 dereferenceable(40) %11)
  %13 = tail call i32 @pthread_mutex_destroy(ptr noundef nonnull %11) #22
  tail call void @free(ptr noundef nonnull %11) #22
  store atomic i64 0, ptr %8 monotonic, align 8
  br label %14

14:                                               ; preds = %10, %7
  tail call void @_ZN14hb_sparseset_tI23hb_bit_set_invertible_tED2Ev(ptr noundef nonnull align 8 dereferenceable(72) %0) #22
  tail call void @free(ptr noundef nonnull %0) #22
  br label %_ZL17hb_object_destroyI8hb_set_tEbPT_.exit.thread

_ZL17hb_object_destroyI8hb_set_tEbPT_.exit.thread: ; preds = %1, %5, %2, %14
  ret void
}